; Function Attrs: nounwind uwtable
define internal ptr @AllocWithGetFrameBufferCb(ptr nocapture noundef readonly %0, i64 noundef %1) #0 {
  %3 = load ptr, ptr %0, align 8
  %4 = getelementptr inbounds nuw i8, ptr %3, i64 48
  %5 = load ptr, ptr %4, align 8
  %6 = getelementptr inbounds nuw i8, ptr %3, i64 40
  %7 = load ptr, ptr %6, align 8
  %8 = getelementptr inbounds nuw i8, ptr %0, i64 8
  %9 = load ptr, ptr %8, align 8
  %10 = tail call i32 %5(ptr noundef %7, i64 noundef %1, ptr noundef %9) #12
  %11 = icmp slt i32 %10, 0
  br i1 %11, label %20, label %12

12:                                               ; preds = %2
  %13 = load ptr, ptr %8, align 8
  %14 = load ptr, ptr %13, align 8
  %15 = icmp eq ptr %14, null
  br i1 %15, label %20, label %16

16:                                               ; preds = %12
  %17 = getelementptr inbounds nuw i8, ptr %13, i64 8
  %18 = load i64, ptr %17, align 8
  %19 = icmp ult i64 %18, %1
  %spec.select = select i1 %19, ptr null, ptr %14
  br label %20

20:                                               ; preds = %16, %12, %2
  %.0 = phi ptr [ null, %2 ], [ null, %12 ], [ %spec.select, %16 ]
  ret ptr %.0
}